target datalayout = "e-m:e-p270:32:32-p271:32:32-p272:64:64-i64:64-i128:128-f80:128-n8:16:32:64-S128"
target triple = "x86_64-pc-linux-gnu"

%struct.redisServer = type { i32, i64, ptr, ptr, ptr, i32, i32, i32, i32, i32, ptr, ptr, ptr, ptr, ptr, i32, i32, i32, i32, i64, i32, i32, i32, i32, ptr, i32, i32, [41 x i8], i32, i64, i32, i32, i32, ptr, ptr, i32, i32, i64, ptr, ptr, ptr, ptr, [2 x i32], i32, i32, i32, i32, i32, i32, [16 x ptr], i32, ptr, ptr, i32, [8 x %struct.connListener], i32, %struct.connListener, ptr, ptr, ptr, ptr, ptr, ptr, ptr, ptr, ptr, ptr, i32, ptr, i32, ptr, [3 x %struct.pause_event], [256 x i8], ptr, i64, i32, i32, [128 x i32], i32, i32, i64, i32, i32, i32, i32, i32, i64, i64, i64, i64, i64, i64, i64, i64, i64, i64, double, i64, i64, i64, i64, i64, i64, i64, i64, i64, i64, i64, i64, i64, i64, i64, i64, i64, i64, i64, i64, i64, double, i64, i64, i64, i64, i64, ptr, i64, i64, i64, %struct.malloc_stats, i64, i64, i64, i64, i64, i64, i64, i64, i64, i64, i64, i64, double, [4 x i64], i64, i64, i64, i64, [128 x i64], [128 x i64], i64, i64, [7 x %struct.anon], i64, i64, i64, i64, i64, i64, [4 x %struct.durationStats], i32, i32, i32, i32, i32, i32, i32, i32, i32, i32, i32, i32, i64, i32, i32, i32, i32, i64, i64, i32, i32, i32, i32, i32, ptr, [3 x %struct.clientBufferLimitsConfig], i32, i32, i32, ptr, i32, i32, i32, i32, i32, i32, ptr, ptr, i32, i32, i64, i64, i64, i64, i64, i32, i32, ptr, i32, i32, i64, i64, i64, i64, i64, i32, i32, i64, i32, i32, i32, i32, i32, i32, i32, i32, ptr, i32, i64, i64, i64, i64, i32, ptr, i32, ptr, i32, i32, i32, i64, i64, i64, i64, i32, i32, i32, i32, i32, i32, ptr, i32, i32, ptr, i32, i32, i32, [2 x i32], i32, %struct.redisOpArray, i32, ptr, i32, ptr, i32, i32, i32, i32, i32, i32, i32, [41 x i8], [41 x i8], i64, i64, i64, i64, i32, i32, ptr, i64, i64, %struct.replDataBuf, i64, i64, i32, i32, i32, i32, i32, i32, i32, i32, i32, i64, ptr, i64, ptr, ptr, ptr, i32, i32, ptr, ptr, i32, i32, i32, i64, i64, i64, i64, ptr, ptr, i32, ptr, i64, i32, i32, i32, i64, i32, i32, i32, i32, ptr, i32, i32, [41 x i8], i64, i32, ptr, i32, i32, i64, i64, i32, i32, i32, i32, i32, i64, [3 x i32], i32, i32, i32, [10 x i32], ptr, ptr, i32, i64, ptr, ptr, i32, i32, i32, i32, i64, i64, i64, i64, i64, i64, i64, i64, i64, i64, i32, i32, i64, i64, i32, i64, i64, i64, i64, i64, ptr, ptr, i32, ptr, i32, i32, i32, i32, i64, i64, ptr, ptr, i32, i32, i32, i32, i32, ptr, ptr, ptr, i32, i32, i32, i32, i32, i32, i32, i64, i32, i32, i64, i32, i32, i32, i32, i32, i32, i32, i64, ptr, ptr, i64, ptr, i32, %struct.aclInfo, i32, i64, i32, i32, i32, %struct.redisTLSContextConfig, ptr, ptr, ptr, ptr, ptr, i64, i32, ptr, i32, i32, i32, i64, i32, ptr }
%struct.connListener = type { [16 x i32], i32, ptr, i32, i32, ptr, ptr }
%struct.pause_event = type { i32, i64 }
%struct.malloc_stats = type { i64, i64, i64, i64, i64, i64, i64, i64, i64, i64, i64 }
%struct.anon = type { i64, i64, [16 x i64], i32 }
%struct.durationStats = type { i64, i64, i64 }
%struct.clientBufferLimitsConfig = type { i64, i64, i64 }
%struct.redisOpArray = type { ptr, i32, i32 }
%struct.replDataBuf = type { ptr, i64, i64, i64, i64 }
%struct.aclInfo = type { i64, i64, i64, i64 }
%struct.redisTLSContextConfig = type { ptr, ptr, ptr, ptr, ptr, ptr, ptr, ptr, ptr, ptr, ptr, ptr, i32, i32, i32, i32 }
%struct.ConnectionType = type { ptr, ptr, ptr, ptr, ptr, ptr, ptr, ptr, ptr, ptr, ptr, ptr, ptr, ptr, ptr, ptr, ptr, ptr, ptr, ptr, ptr, ptr, ptr, ptr, ptr, ptr, ptr, ptr, ptr, ptr }
%struct.clusterLink = type { i64, ptr, ptr, i64, i64, ptr, i64, i64, ptr, i32 }
%struct.connection = type { ptr, i32, i32, i32, i16, i16, i16, ptr, ptr, ptr, ptr, ptr }

@server = external global %struct.redisServer, align 8
@.str.79 = private unnamed_addr constant [39 x i8] c"Error converting peer IP to string: %s\00", align 1
@.str.80 = private unnamed_addr constant [8 x i8] c"no link\00", align 1

; Function Attrs: inlinehint nounwind uwtable
define internal i32 @connAddr(ptr noundef %0, ptr noundef %1, i64 noundef %2, ptr noundef %3, i32 noundef %4) #5 {
  %6 = alloca i32, align 4
  %7 = alloca ptr, align 8
  %8 = alloca ptr, align 8
  %9 = alloca i64, align 8
  %10 = alloca ptr, align 8
  %11 = alloca i32, align 4
  store ptr %0, ptr %7, align 8, !tbaa !165
  store ptr %1, ptr %8, align 8, !tbaa !52
  store i64 %2, ptr %9, align 8, !tbaa !65
  store ptr %3, ptr %10, align 8, !tbaa !122
  store i32 %4, ptr %11, align 4, !tbaa !46
  %12 = load ptr, ptr %7, align 8, !tbaa !165
  %13 = icmp ne ptr %12, null
  br i1 %13, label %14, label %33

14:                                               ; preds = %5
  %15 = load ptr, ptr %7, align 8, !tbaa !165
  %16 = getelementptr inbounds nuw %struct.connection, ptr %15, i32 0, i32 0
  %17 = load ptr, ptr %16, align 8, !tbaa !190
  %18 = getelementptr inbounds nuw %struct.ConnectionType, ptr %17, i32 0, i32 6
  %19 = load ptr, ptr %18, align 8, !tbaa !356
  %20 = icmp ne ptr %19, null
  br i1 %20, label %21, label %33

21:                                               ; preds = %14
  %22 = load ptr, ptr %7, align 8, !tbaa !165
  %23 = getelementptr inbounds nuw %struct.connection, ptr %22, i32 0, i32 0
  %24 = load ptr, ptr %23, align 8, !tbaa !190
  %25 = getelementptr inbounds nuw %struct.ConnectionType, ptr %24, i32 0, i32 6
  %26 = load ptr, ptr %25, align 8, !tbaa !356
  %27 = load ptr, ptr %7, align 8, !tbaa !165
  %28 = load ptr, ptr %8, align 8, !tbaa !52
  %29 = load i64, ptr %9, align 8, !tbaa !65
  %30 = load ptr, ptr %10, align 8, !tbaa !122
  %31 = load i32, ptr %11, align 4, !tbaa !46
  %32 = call i32 %26(ptr noundef %27, ptr noundef %28, i64 noundef %29, ptr noundef %30, i32 noundef %31)
  store i32 %32, ptr %6, align 4
  br label %34

33:                                               ; preds = %14, %5
  store i32 -1, ptr %6, align 4
  br label %34

34:                                               ; preds = %33, %21
  %35 = load i32, ptr %6, align 4
  ret i32 %35
}

; Function Attrs: inlinehint nounwind uwtable
define internal ptr @connGetLastError(ptr noundef %0) #5 {
  %2 = alloca ptr, align 8
  store ptr %0, ptr %2, align 8, !tbaa !165
  %3 = load ptr, ptr %2, align 8, !tbaa !165
  %4 = getelementptr inbounds nuw %struct.connection, ptr %3, i32 0, i32 0
  %5 = load ptr, ptr %4, align 8, !tbaa !190
  %6 = getelementptr inbounds nuw %struct.ConnectionType, ptr %5, i32 0, i32 21
  %7 = load ptr, ptr %6, align 8, !tbaa !197
  %8 = load ptr, ptr %2, align 8, !tbaa !165
  %9 = call ptr %7(ptr noundef %8)
  ret ptr %9
}

; Function Attrs: inlinehint nounwind uwtable
define internal i32 @connAddrPeerName(ptr noundef %0, ptr noundef %1, i64 noundef %2, ptr noundef %3) #5 {
  %5 = alloca ptr, align 8
  %6 = alloca ptr, align 8
  %7 = alloca i64, align 8
  %8 = alloca ptr, align 8
  store ptr %0, ptr %5, align 8, !tbaa !165
  store ptr %1, ptr %6, align 8, !tbaa !52
  store i64 %2, ptr %7, align 8, !tbaa !65
  store ptr %3, ptr %8, align 8, !tbaa !122
  %9 = load ptr, ptr %5, align 8, !tbaa !165
  %10 = load ptr, ptr %6, align 8, !tbaa !52
  %11 = load i64, ptr %7, align 8, !tbaa !65
  %12 = load ptr, ptr %8, align 8, !tbaa !122
  %13 = call i32 @connAddr(ptr noundef %9, ptr noundef %10, i64 noundef %11, ptr noundef %12, i32 noundef 1)
  ret i32 %13
}

; Function Attrs: nounwind uwtable
define dso_local i32 @nodeIp2String(ptr noundef %0, ptr noundef %1, ptr noundef %2) #0 {
  %4 = alloca i32, align 4
  %5 = alloca ptr, align 8
  %6 = alloca ptr, align 8
  %7 = alloca ptr, align 8
  store ptr %0, ptr %5, align 8, !tbaa !52
  store ptr %1, ptr %6, align 8, !tbaa !172
  store ptr %2, ptr %7, align 8, !tbaa !52
  %8 = load ptr, ptr %7, align 8, !tbaa !52
  %9 = getelementptr inbounds i8, ptr %8, i64 0
  %10 = load i8, ptr %9, align 1, !tbaa !54
  %11 = sext i8 %10 to i32
  %12 = icmp ne i32 %11, 0
  br i1 %12, label %13, label %18

13:                                               ; preds = %3
  %14 = load ptr, ptr %5, align 8, !tbaa !52
  %15 = load ptr, ptr %7, align 8, !tbaa !52
  call void @llvm.memcpy.p0.p0.i64(ptr align 1 %14, ptr align 1 %15, i64 46, i1 false)
  %16 = load ptr, ptr %5, align 8, !tbaa !52
  %17 = getelementptr inbounds i8, ptr %16, i64 45
  store i8 0, ptr %17, align 1, !tbaa !54
  store i32 0, ptr %4, align 4
  br label %45

18:                                               ; preds = %3
  %19 = load ptr, ptr %6, align 8, !tbaa !172
  %20 = getelementptr inbounds nuw %struct.clusterLink, ptr %19, i32 0, i32 1
  %21 = load ptr, ptr %20, align 8, !tbaa !182
  %22 = load ptr, ptr %5, align 8, !tbaa !52
  %23 = call i32 @connAddrPeerName(ptr noundef %21, ptr noundef %22, i64 noundef 46, ptr noundef null)
  %24 = icmp eq i32 %23, -1
  br i1 %24, label %25, label %44

25:                                               ; preds = %18
  br label %26

26:                                               ; preds = %25
  %27 = load i32, ptr getelementptr inbounds nuw (%struct.redisServer, ptr @server, i32 0, i32 159), align 8, !tbaa !68
  %28 = icmp slt i32 2, %27
  br i1 %28, label %29, label %30

29:                                               ; preds = %26
  br label %43

30:                                               ; preds = %26
  %31 = load ptr, ptr %6, align 8, !tbaa !172
  %32 = getelementptr inbounds nuw %struct.clusterLink, ptr %31, i32 0, i32 1
  %33 = load ptr, ptr %32, align 8, !tbaa !182
  %34 = icmp ne ptr %33, null
  br i1 %34, label %35, label %40

35:                                               ; preds = %30
  %36 = load ptr, ptr %6, align 8, !tbaa !172
  %37 = getelementptr inbounds nuw %struct.clusterLink, ptr %36, i32 0, i32 1
  %38 = load ptr, ptr %37, align 8, !tbaa !182
  %39 = call ptr @connGetLastError(ptr noundef %38)
  br label %41

40:                                               ; preds = %30
  br label %41

41:                                               ; preds = %40, %35
  %42 = phi ptr [ %39, %35 ], [ @.str.80, %40 ]
  call void (i32, ptr, ...) @_serverLog(i32 noundef 2, ptr noundef @.str.79, ptr noundef %42)
  br label %43

43:                                               ; preds = %41, %29
  store i32 -1, ptr %4, align 4
  br label %45

44:                                               ; preds = %18
  store i32 0, ptr %4, align 4
  br label %45

45:                                               ; preds = %44, %43, %13
  %46 = load i32, ptr %4, align 4
  ret i32 %46
}