; Function Attrs: nounwind uwtable
define dso_local range(i32 -1, 1) i32 @nodeIp2String(ptr noundef %0, ptr noundef readonly captures(none) %1, ptr noundef readonly captures(none) %2) local_unnamed_addr #3 {
  %4 = load i8, ptr %2, align 1, !tbaa !50
  %.not = icmp eq i8 %4, 0
  br i1 %.not, label %7, label %5

5:                                                ; preds = %3
  tail call void @llvm.memcpy.p0.p0.i64(ptr noundef nonnull align 1 dereferenceable(46) %0, ptr noundef nonnull align 1 dereferenceable(46) %2, i64 45, i1 false)
  %6 = getelementptr inbounds nuw i8, ptr %0, i64 45
  store i8 0, ptr %6, align 1, !tbaa !50
  br label %27

7:                                                ; preds = %3
  %8 = getelementptr inbounds nuw i8, ptr %1, i64 8
  %9 = load ptr, ptr %8, align 8, !tbaa !161
  %.not.i.i = icmp eq ptr %9, null
  br i1 %.not.i.i, label %connAddrPeerName.exit.thread, label %10

10:                                               ; preds = %7
  %11 = load ptr, ptr %9, align 8, !tbaa !139
  %12 = getelementptr inbounds nuw i8, ptr %11, i64 48
  %13 = load ptr, ptr %12, align 8, !tbaa !206
  %.not10.i.i = icmp eq ptr %13, null
  br i1 %.not10.i.i, label %connAddrPeerName.exit.thread, label %connAddrPeerName.exit

connAddrPeerName.exit:                            ; preds = %10
  %14 = tail call i32 %13(ptr noundef nonnull %9, ptr noundef %0, i64 noundef 46, ptr noundef null, i32 noundef 1) #33
  %15 = icmp eq i32 %14, -1
  br i1 %15, label %connAddrPeerName.exit.thread, label %27

connAddrPeerName.exit.thread:                     ; preds = %7, %10, %connAddrPeerName.exit
  %16 = load i32, ptr getelementptr inbounds nuw (i8, ptr @server, i64 6288), align 8, !tbaa !63
  %17 = icmp sgt i32 %16, 2
  br i1 %17, label %27, label %18

18:                                               ; preds = %connAddrPeerName.exit.thread
  %19 = load ptr, ptr %8, align 8, !tbaa !161
  %.not9 = icmp eq ptr %19, null
  br i1 %.not9, label %25, label %20

20:                                               ; preds = %18
  %21 = load ptr, ptr %19, align 8, !tbaa !139
  %22 = getelementptr inbounds nuw i8, ptr %21, i64 168
  %23 = load ptr, ptr %22, align 8, !tbaa !140
  %24 = tail call ptr %23(ptr noundef nonnull %19) #33
  br label %25

25:                                               ; preds = %18, %20
  %26 = phi ptr [ %24, %20 ], [ @.str.80, %18 ]
  tail call void (i32, ptr, ...) @_serverLog(i32 noundef 2, ptr noundef nonnull @.str.79, ptr noundef %26) #33
  br label %27

27:                                               ; preds = %connAddrPeerName.exit, %25, %connAddrPeerName.exit.thread, %5
  %.0 = phi i32 [ 0, %5 ], [ -1, %connAddrPeerName.exit.thread ], [ -1, %25 ], [ 0, %connAddrPeerName.exit ]
  ret i32 %.0
}